; Function Attrs: nounwind sspstrong uwtable
define internal void @ehci_class_init(ptr noundef %klass, ptr readnone captures(none) %data) #0 {
entry:
  %call.i = tail call ptr @object_class_dynamic_cast_assert(ptr noundef %klass, ptr noundef nonnull @.str.3, ptr noundef nonnull @.str.4, i32 noundef 77, ptr noundef nonnull @__func__.DEVICE_CLASS) #4
  %call.i7 = tail call ptr @object_class_dynamic_cast_assert(ptr noundef %klass, ptr noundef nonnull @.str.1, ptr noundef nonnull @.str.2, i32 noundef 10, ptr noundef nonnull @__func__.PCI_DEVICE_CLASS) #4
  %realize = getelementptr inbounds nuw i8, ptr %call.i7, i64 176
  store ptr @usb_ehci_pci_realize, ptr %realize, align 8
  %exit = getelementptr inbounds nuw i8, ptr %call.i7, i64 184
  store ptr @usb_ehci_pci_exit, ptr %exit, align 8
  %class_id = getelementptr inbounds nuw i8, ptr %call.i7, i64 214
  store i16 3075, ptr %class_id, align 2
  %config_write = getelementptr inbounds nuw i8, ptr %call.i7, i64 200
  store ptr @usb_ehci_pci_write_config, ptr %config_write, align 8
  %vmsd = getelementptr inbounds nuw i8, ptr %call.i, i64 160
  store ptr @vmstate_ehci_pci, ptr %vmsd, align 8
  tail call void @device_class_set_props(ptr noundef %call.i, ptr noundef nonnull @ehci_pci_properties) #4
  %reset = getelementptr inbounds nuw i8, ptr %call.i, i64 136
  store ptr @usb_ehci_pci_reset, ptr %reset, align 8
  ret void
}